target datalayout = "e-m:e-p270:32:32-p271:32:32-p272:64:64-i64:64-i128:128-f80:128-n8:16:32:64-S128"
target triple = "x86_64-pc-linux-gnu"

%struct.Fraig_HashTableStruct_t_ = type { ptr, i32, i32 }

; Function Attrs: inlinehint nounwind uwtable
define internal i32 @Abc_PrimeCudd(i32 noundef %0) #4 {
  %2 = alloca i32, align 4
  %3 = alloca i32, align 4
  %4 = alloca i32, align 4
  store i32 %0, ptr %2, align 4, !tbaa !3
  call void @llvm.lifetime.start.p0(i64 4, ptr %3) #7
  call void @llvm.lifetime.start.p0(i64 4, ptr %4) #7
  %5 = load i32, ptr %2, align 4, !tbaa !3
  %6 = add i32 %5, -1
  store i32 %6, ptr %2, align 4, !tbaa !3
  br label %7

7:                                                ; preds = %32, %1
  %8 = load i32, ptr %2, align 4, !tbaa !3
  %9 = add i32 %8, 1
  store i32 %9, ptr %2, align 4, !tbaa !3
  %10 = load i32, ptr %2, align 4, !tbaa !3
  %11 = and i32 %10, 1
  %12 = icmp ne i32 %11, 0
  br i1 %12, label %13, label %30

13:                                               ; preds = %7
  store i32 1, ptr %4, align 4, !tbaa !3
  store i32 3, ptr %3, align 4, !tbaa !3
  br label %14

14:                                               ; preds = %26, %13
  %15 = load i32, ptr %3, align 4, !tbaa !3
  %16 = load i32, ptr %3, align 4, !tbaa !3
  %17 = mul nsw i32 %15, %16
  %18 = load i32, ptr %2, align 4, !tbaa !3
  %19 = icmp ule i32 %17, %18
  br i1 %19, label %20, label %29

20:                                               ; preds = %14
  %21 = load i32, ptr %2, align 4, !tbaa !3
  %22 = load i32, ptr %3, align 4, !tbaa !3
  %23 = urem i32 %21, %22
  %24 = icmp eq i32 %23, 0
  br i1 %24, label %25, label %26

25:                                               ; preds = %20
  store i32 0, ptr %4, align 4, !tbaa !3
  br label %29

26:                                               ; preds = %20
  %27 = load i32, ptr %3, align 4, !tbaa !3
  %28 = add nsw i32 %27, 2
  store i32 %28, ptr %3, align 4, !tbaa !3
  br label %14, !llvm.loop !14

29:                                               ; preds = %25, %14
  br label %31

30:                                               ; preds = %7
  store i32 0, ptr %4, align 4, !tbaa !3
  br label %31

31:                                               ; preds = %30, %29
  br label %32

32:                                               ; preds = %31
  %33 = load i32, ptr %4, align 4, !tbaa !3
  %34 = icmp ne i32 %33, 0
  %35 = xor i1 %34, true
  br i1 %35, label %7, label %36, !llvm.loop !16

36:                                               ; preds = %32
  %37 = load i32, ptr %2, align 4, !tbaa !3
  call void @llvm.lifetime.end.p0(i64 4, ptr %4) #7
  call void @llvm.lifetime.end.p0(i64 4, ptr %3) #7
  ret i32 %37
}

; Function Attrs: nounwind uwtable
define ptr @Fraig_HashTableCreate(i32 noundef %0) #0 {
  %2 = alloca i32, align 4
  %3 = alloca ptr, align 8
  store i32 %0, ptr %2, align 4, !tbaa !3
  call void @llvm.lifetime.start.p0(i64 8, ptr %3) #7
  %4 = call noalias ptr @malloc(i64 noundef 16) #8
  store ptr %4, ptr %3, align 8, !tbaa !7
  %5 = load ptr, ptr %3, align 8, !tbaa !7
  call void @llvm.memset.p0.i64(ptr align 8 %5, i8 0, i64 16, i1 false)
  %6 = load i32, ptr %2, align 4, !tbaa !3
  %7 = call i32 @Abc_PrimeCudd(i32 noundef %6)
  %8 = load ptr, ptr %3, align 8, !tbaa !7
  %9 = getelementptr inbounds nuw %struct.Fraig_HashTableStruct_t_, ptr %8, i32 0, i32 1
  store i32 %7, ptr %9, align 8, !tbaa !10
  %10 = load ptr, ptr %3, align 8, !tbaa !7
  %11 = getelementptr inbounds nuw %struct.Fraig_HashTableStruct_t_, ptr %10, i32 0, i32 1
  %12 = load i32, ptr %11, align 8, !tbaa !10
  %13 = sext i32 %12 to i64
  %14 = mul i64 8, %13
  %15 = call noalias ptr @malloc(i64 noundef %14) #8
  %16 = load ptr, ptr %3, align 8, !tbaa !7
  %17 = getelementptr inbounds nuw %struct.Fraig_HashTableStruct_t_, ptr %16, i32 0, i32 0
  store ptr %15, ptr %17, align 8, !tbaa !13
  %18 = load ptr, ptr %3, align 8, !tbaa !7
  %19 = getelementptr inbounds nuw %struct.Fraig_HashTableStruct_t_, ptr %18, i32 0, i32 0
  %20 = load ptr, ptr %19, align 8, !tbaa !13
  %21 = load ptr, ptr %3, align 8, !tbaa !7
  %22 = getelementptr inbounds nuw %struct.Fraig_HashTableStruct_t_, ptr %21, i32 0, i32 1
  %23 = load i32, ptr %22, align 8, !tbaa !10
  %24 = sext i32 %23 to i64
  %25 = mul i64 8, %24
  call void @llvm.memset.p0.i64(ptr align 8 %20, i8 0, i64 %25, i1 false)
  %26 = load ptr, ptr %3, align 8, !tbaa !7
  call void @llvm.lifetime.end.p0(i64 8, ptr %3) #7
  ret ptr %26
}